; Function Attrs: mustprogress nofree norecurse nosync nounwind willreturn memory(argmem: readwrite) uwtable
define dso_local void @sdsrange(ptr nocapture noundef %s, i64 noundef %start, i64 noundef %end) local_unnamed_addr #7 {
entry:
  %arrayidx.i = getelementptr inbounds i8, ptr %s, i64 -1
  %0 = load i8, ptr %arrayidx.i, align 1
  %conv.i = zext i8 %0 to i32
  %and.i = and i32 %conv.i, 7
  switch i32 %and.i, label %return [
    i32 0, label %sw.bb.i
    i32 1, label %sw.bb3.i
    i32 2, label %sw.bb5.i
    i32 3, label %sw.bb9.i
    i32 4, label %sw.bb13.i
  ]

sw.bb.i:                                          ; preds = %entry
  %shr.i = lshr i32 %conv.i, 3
  %conv2.i = zext nneg i32 %shr.i to i64
  br label %sdslen.exit

sw.bb3.i:                                         ; preds = %entry
  %add.ptr.i = getelementptr inbounds i8, ptr %s, i64 -3
  %1 = load i8, ptr %add.ptr.i, align 1
  %conv4.i = zext i8 %1 to i64
  br label %sdslen.exit

sw.bb5.i:                                         ; preds = %entry
  %add.ptr6.i = getelementptr inbounds i8, ptr %s, i64 -5
  %2 = load i16, ptr %add.ptr6.i, align 1
  %conv8.i = zext i16 %2 to i64
  br label %sdslen.exit

sw.bb9.i:                                         ; preds = %entry
  %add.ptr10.i = getelementptr inbounds i8, ptr %s, i64 -9
  %3 = load i32, ptr %add.ptr10.i, align 1
  %conv12.i = zext i32 %3 to i64
  br label %sdslen.exit

sw.bb13.i:                                        ; preds = %entry
  %add.ptr14.i = getelementptr inbounds i8, ptr %s, i64 -17
  %4 = load i64, ptr %add.ptr14.i, align 1
  br label %sdslen.exit

sdslen.exit:                                      ; preds = %sw.bb.i, %sw.bb3.i, %sw.bb5.i, %sw.bb9.i, %sw.bb13.i
  %retval.0.i = phi i64 [ %4, %sw.bb13.i ], [ %conv12.i, %sw.bb9.i ], [ %conv8.i, %sw.bb5.i ], [ %conv4.i, %sw.bb3.i ], [ %conv2.i, %sw.bb.i ]
  %cmp = icmp eq i64 %retval.0.i, 0
  br i1 %cmp, label %return, label %if.end

if.end:                                           ; preds = %sdslen.exit
  %cmp1 = icmp slt i64 %start, 0
  %add = select i1 %cmp1, i64 %retval.0.i, i64 0
  %spec.select = add i64 %add, %start
  %cmp4 = icmp slt i64 %end, 0
  %add6 = select i1 %cmp4, i64 %retval.0.i, i64 0
  %end.addr.0 = add i64 %add6, %end
  %cmp8 = icmp sgt i64 %spec.select, %end.addr.0
  %reass.sub = sub i64 %end.addr.0, %spec.select
  %add9 = add i64 %reass.sub, 1
  %cond = select i1 %cmp8, i64 0, i64 %add9
  tail call void @sdssubstr(ptr noundef nonnull %s, i64 noundef %spec.select, i64 noundef %cond)
  br label %return

return:                                           ; preds = %entry, %sdslen.exit, %if.end
  ret void
}